; Function Attrs: mustprogress uwtable
define hidden noundef zeroext i1 @_ZN4cvc58internal6theory11quantifiers19QuantifiersRewriter10isStandardERKNS0_12NodeTemplateILb1EEERKNS0_7OptionsE(ptr nocapture noundef nonnull readonly align 8 dereferenceable(8) %q, ptr nocapture noundef nonnull readonly align 8 dereferenceable(392) %opts) local_unnamed_addr #3 align 2 personality ptr @__gxx_personality_v0 {
entry:
  %qa = alloca %"struct.cvc5::internal::theory::quantifiers::QAttributes", align 8
  %agg.tmp = alloca %"class.cvc5::internal::NodeTemplate", align 8
  call void @_ZN4cvc58internal6theory11quantifiers11QAttributesC2Ev(ptr noundef nonnull align 8 dereferenceable(80) %qa)
  %0 = load ptr, ptr %q, align 8
  store ptr %0, ptr %agg.tmp, align 8
  %bf.load.i.i = load i64, ptr %0, align 8
  %bf.lshr.i.i = lshr i64 %bf.load.i.i, 40
  %1 = trunc i64 %bf.lshr.i.i to i32
  %bf.cast.i.i = and i32 %1, 1048575
  %cmp.i.i = icmp ult i32 %bf.cast.i.i, 1048574
  br i1 %cmp.i.i, label %if.then.i.i, label %if.else.i.i

if.then.i.i:                                      ; preds = %entry
  %bf.value.i.i = add i64 %bf.load.i.i, 1099511627776
  %bf.shl.i.i = and i64 %bf.value.i.i, 1152920405095219200
  %bf.clear7.i.i = and i64 %bf.load.i.i, -1152920405095219201
  %bf.set.i.i = or disjoint i64 %bf.shl.i.i, %bf.clear7.i.i
  store i64 %bf.set.i.i, ptr %0, align 8
  br label %invoke.cont

if.else.i.i:                                      ; preds = %entry
  %cmp12.i.i = icmp eq i32 %bf.cast.i.i, 1048574
  br i1 %cmp12.i.i, label %if.then13.i.i, label %invoke.cont

if.then13.i.i:                                    ; preds = %if.else.i.i
  %bf.set23.i.i = or i64 %bf.load.i.i, 1152920405095219200
  store i64 %bf.set23.i.i, ptr %0, align 8
  invoke void @_ZN4cvc58internal4expr9NodeValue20markRefCountMaxedOutEv(ptr noundef nonnull align 8 dereferenceable(16) %0)
          to label %invoke.cont unwind label %lpad

invoke.cont:                                      ; preds = %if.else.i.i, %if.then.i.i, %if.then13.i.i
  invoke void @_ZN4cvc58internal6theory11quantifiers15QuantAttributes22computeQuantAttributesENS0_12NodeTemplateILb1EEERNS2_11QAttributesE(ptr noundef nonnull %agg.tmp, ptr noundef nonnull align 8 dereferenceable(80) %qa)
          to label %invoke.cont2 unwind label %lpad1

invoke.cont2:                                     ; preds = %invoke.cont
  %2 = load ptr, ptr %agg.tmp, align 8
  %bf.load.i.i2 = load i64, ptr %2, align 8
  %3 = and i64 %bf.load.i.i2, 1152920405095219200
  %cmp.not.i.i = icmp eq i64 %3, 1152920405095219200
  br i1 %cmp.not.i.i, label %_ZN4cvc58internal12NodeTemplateILb1EED2Ev.exit, label %if.then.i.i3

if.then.i.i3:                                     ; preds = %invoke.cont2
  %bf.value.i.i4 = add i64 %bf.load.i.i2, 1152920405095219200
  %bf.shl.i.i5 = and i64 %bf.value.i.i4, 1152920405095219200
  %bf.clear7.i.i6 = and i64 %bf.load.i.i2, -1152920405095219201
  %bf.set.i.i7 = or disjoint i64 %bf.shl.i.i5, %bf.clear7.i.i6
  store i64 %bf.set.i.i7, ptr %2, align 8
  %cmp12.i.i8 = icmp eq i64 %bf.shl.i.i5, 0
  br i1 %cmp12.i.i8, label %if.then13.i.i9, label %_ZN4cvc58internal12NodeTemplateILb1EED2Ev.exit

if.then13.i.i9:                                   ; preds = %if.then.i.i3
  invoke void @_ZN4cvc58internal4expr9NodeValue15markForDeletionEv(ptr noundef nonnull align 8 dereferenceable(16) %2)
          to label %_ZN4cvc58internal12NodeTemplateILb1EED2Ev.exit unwind label %terminate.lpad.i

terminate.lpad.i:                                 ; preds = %if.then13.i.i9
  %4 = landingpad { ptr, i32 }
          catch ptr null
  %5 = extractvalue { ptr, i32 } %4, 0
  call void @__clang_call_terminate(ptr %5) #20
  unreachable

_ZN4cvc58internal12NodeTemplateILb1EED2Ev.exit:   ; preds = %invoke.cont2, %if.then.i.i3, %if.then13.i.i9
  %6 = load i8, ptr %qa, align 8
  %7 = and i8 %6, 1
  %tobool.not.i = icmp eq i8 %7, 0
  br i1 %tobool.not.i, label %land.end.i, label %land.rhs.i

land.rhs.i:                                       ; preds = %_ZN4cvc58internal12NodeTemplateILb1EED2Ev.exit
  %quantifiers.i = getelementptr inbounds i8, ptr %opts, i64 328
  %8 = load ptr, ptr %quantifiers.i, align 8
  %userPatternsQuant.i = getelementptr inbounds i8, ptr %8, i64 748
  %9 = load i32, ptr %userPatternsQuant.i, align 4
  %cmp.i = icmp ne i32 %9, 2
  br label %land.end.i

land.end.i:                                       ; preds = %land.rhs.i, %_ZN4cvc58internal12NodeTemplateILb1EED2Ev.exit
  %lnot.i = phi i1 [ true, %_ZN4cvc58internal12NodeTemplateILb1EED2Ev.exit ], [ %cmp.i, %land.rhs.i ]
  %call.i10 = invoke noundef zeroext i1 @_ZNK4cvc58internal6theory11quantifiers11QAttributes10isStandardEv(ptr noundef nonnull align 8 dereferenceable(80) %qa)
          to label %invoke.cont3 unwind label %lpad

invoke.cont3:                                     ; preds = %land.end.i
  %10 = select i1 %call.i10, i1 %lnot.i, i1 false
  call void @_ZN4cvc58internal6theory11quantifiers11QAttributesD2Ev(ptr noundef nonnull align 8 dereferenceable(80) %qa) #21
  ret i1 %10

lpad:                                             ; preds = %land.end.i, %if.then13.i.i
  %11 = landingpad { ptr, i32 }
          cleanup
  br label %ehcleanup

lpad1:                                            ; preds = %invoke.cont
  %12 = landingpad { ptr, i32 }
          cleanup
  call void @_ZN4cvc58internal12NodeTemplateILb1EED2Ev(ptr noundef nonnull align 8 dereferenceable(8) %agg.tmp) #21
  br label %ehcleanup

ehcleanup:                                        ; preds = %lpad1, %lpad
  %.pn = phi { ptr, i32 } [ %11, %lpad ], [ %12, %lpad1 ]
  call void @_ZN4cvc58internal6theory11quantifiers11QAttributesD2Ev(ptr noundef nonnull align 8 dereferenceable(80) %qa) #21
  resume { ptr, i32 } %.pn
}